target datalayout = "e-m:e-p270:32:32-p271:32:32-p272:64:64-i64:64-i128:128-f80:128-n8:16:32:64-S128"
target triple = "x86_64-pc-linux-gnu"

%struct.rb_vm_struct = type { i64, %struct.anon.0, ptr, i64, %struct.ccan_list_head, i32, i8, i64, ptr, [5 x i64], i64, i64, i64, i64, i64, i64, i64, i64, i64, ptr, ptr, ptr, %struct.anon.4, ptr, i32, %struct.ccan_list_head, %union.pthread_mutex_t, i64, i64, i64, i64, i32, %struct.anon.5, ptr, ptr, ptr, ptr, ptr, ptr, ptr, ptr, i64, [1023 x ptr], %struct.anon.6 }
%struct.anon.0 = type { %struct.ccan_list_head, i32, i32, ptr, ptr, %struct.anon.1, %struct.anon.3 }
%struct.anon.1 = type { %union.pthread_mutex_t, ptr, i32, %union.pthread_cond_t, i8 }
%union.pthread_cond_t = type { %struct.__pthread_cond_s }
%struct.__pthread_cond_s = type { %union.__atomic_wide_counter, %union.__atomic_wide_counter, [2 x i32], [2 x i32], i32, i32, [2 x i32] }
%union.__atomic_wide_counter = type { i64 }
%struct.anon.3 = type { %union.pthread_mutex_t, ptr, i8, %union.pthread_cond_t, i32, i32, i32, i32, %struct.ccan_list_head, i32, %struct.ccan_list_head, %struct.ccan_list_head, %struct.ccan_list_head, i8, %union.pthread_cond_t, %union.pthread_cond_t, i8, i32, i32 }
%struct.anon.4 = type { [65 x i64] }
%struct.ccan_list_head = type { %struct.ccan_list_node }
%struct.ccan_list_node = type { ptr, ptr }
%union.pthread_mutex_t = type { %struct.__pthread_mutex_s }
%struct.__pthread_mutex_s = type { i32, i32, i32, i32, i32, i16, i16, %struct.__pthread_internal_list }
%struct.__pthread_internal_list = type { ptr, ptr }
%struct.anon.5 = type { ptr, ptr }
%struct.anon.6 = type { i64, i64, i64, i64 }
%struct.rb_objspace = type { %struct.anon.33, %struct.rb_gc_config, [3 x i8], %struct.anon.19, i32, i64, [5 x %struct.rb_heap_struct], i64, ptr, %struct.anon.34, %struct.mark_stack, i64, %struct.anon.35, ptr, %struct.anon.36, i64, %struct.anon.37, %struct.anon.38, %struct.anon.39, ptr, ptr, i64, ptr, i32, i64 }
%struct.anon.33 = type { i64, i64 }
%struct.rb_gc_config = type { i8 }
%struct.anon.19 = type { i16, [2 x i8] }
%struct.rb_heap_struct = type { i16, i64, i64, i64, i64, i64, i64, i64, i64, ptr, %struct.ccan_list_head, ptr, ptr, i64, ptr, i64, i64 }
%struct.anon.34 = type { i32 }
%struct.mark_stack = type { ptr, ptr, i32, i32, i64, i64 }
%struct.anon.35 = type { ptr, i64, i64, [2 x i64], i64, i64, i64 }
%struct.anon.36 = type { i32, i32, ptr, ptr, i64, i64, double, i64, i64, i64, i64, double, i64, i64, i64, i64, %struct.timespec, i64, %struct.timespec, i64, i64 }
%struct.timespec = type { i64, i64 }
%struct.anon.37 = type { i64, i32, i64, i64, i64, i64, i64, i64, i64 }
%struct.anon.38 = type { [31 x i64], [31 x i64], [31 x i64], [31 x i64], i64, ptr }
%struct.anon.39 = type { i64, i64 }

@ruby_current_vm_ptr = external global ptr, align 8
@.str.139 = private unnamed_addr constant [8 x i8] c"default\00", align 1
@.str.311 = private unnamed_addr constant [15 x i8] c"implementation\00", align 1
@.str.312 = private unnamed_addr constant [23 x i8] c"rgengc_allow_full_mark\00", align 1

; Function Attrs: inlinehint nounwind sspstrong uwtable
define internal ptr @rb_current_vm() #2 {
  %1 = load ptr, ptr @ruby_current_vm_ptr, align 8, !tbaa !74
  ret ptr %1
}

; Function Attrs: nounwind sspstrong uwtable
define internal ptr @rb_gc_impl_active_gc_name() #0 {
  ret ptr @.str.139
}

; Function Attrs: inlinehint nounwind sspstrong willreturn memory(read) uwtable
define internal i64 @rb_intern_const(ptr noundef nonnull %0) #9 {
  %2 = alloca ptr, align 8
  %3 = alloca i64, align 8
  store ptr %0, ptr %2, align 8, !tbaa !14
  call void @llvm.lifetime.start.p0(i64 8, ptr %3) #6
  %4 = load ptr, ptr %2, align 8, !tbaa !14
  %5 = call i64 @strlen(ptr noundef %4) #44
  store i64 %5, ptr %3, align 8, !tbaa !18
  %6 = load ptr, ptr %2, align 8, !tbaa !14
  %7 = load i64, ptr %3, align 8, !tbaa !18
  %8 = call i64 @rb_intern2(ptr noundef %6, i64 noundef %7)
  call void @llvm.lifetime.end.p0(i64 8, ptr %3) #6
  ret i64 %8
}

; Function Attrs: nounwind sspstrong uwtable
define internal i64 @rb_gc_impl_config_get(ptr noundef %0) #0 {
  %2 = alloca ptr, align 8
  %3 = alloca ptr, align 8
  %4 = alloca i64, align 8
  %5 = alloca i64, align 8
  store ptr %0, ptr %2, align 8, !tbaa !76
  call void @llvm.lifetime.start.p0(i64 8, ptr %3) #6
  %6 = load ptr, ptr %2, align 8, !tbaa !76
  store ptr %6, ptr %3, align 8, !tbaa !125
  call void @llvm.lifetime.start.p0(i64 8, ptr %4) #6
  %7 = call i64 @rb_hash_new()
  store i64 %7, ptr %4, align 8, !tbaa !18
  %8 = load i64, ptr %4, align 8, !tbaa !18
  %9 = call i64 @rb_intern_const(ptr noundef @.str.312) #44
  %10 = call i1 @llvm.is.constant.i64(i64 %9)
  br i1 %10, label %11, label %22

11:                                               ; preds = %1
  %12 = call i64 @rb_intern_const(ptr noundef @.str.312) #44
  %13 = and i64 %12, 1
  %14 = icmp ne i64 %13, 0
  br i1 %14, label %18, label %15

15:                                               ; preds = %11
  %16 = call i64 @rb_intern_const(ptr noundef @.str.312) #44
  %17 = icmp ugt i64 %16, 170
  br i1 %17, label %22, label %18

18:                                               ; preds = %15, %11
  %19 = call i64 @rb_intern_const(ptr noundef @.str.312) #44
  %20 = shl i64 %19, 8
  %21 = or i64 %20, 12
  br label %25

22:                                               ; preds = %15, %1
  %23 = call i64 @rb_intern_const(ptr noundef @.str.312) #44
  %24 = call i64 @rb_id2sym(i64 noundef %23)
  br label %25

25:                                               ; preds = %22, %18
  %26 = phi i64 [ %21, %18 ], [ %24, %22 ]
  store i64 %26, ptr %5, align 8, !tbaa !18
  %27 = load i64, ptr %5, align 8, !tbaa !18
  %28 = load ptr, ptr %3, align 8, !tbaa !125
  %29 = getelementptr inbounds nuw %struct.rb_objspace, ptr %28, i32 0, i32 1
  %30 = getelementptr inbounds nuw %struct.rb_gc_config, ptr %29, i32 0, i32 0
  %31 = load i8, ptr %30, align 8, !tbaa !126, !range !122, !noundef !123
  %32 = trunc i8 %31 to i1
  %33 = select i1 %32, i64 20, i64 0
  %34 = call i64 @rb_hash_aset(i64 noundef %8, i64 noundef %27, i64 noundef %33)
  %35 = load i64, ptr %4, align 8, !tbaa !18
  call void @llvm.lifetime.end.p0(i64 8, ptr %4) #6
  call void @llvm.lifetime.end.p0(i64 8, ptr %3) #6
  ret i64 %35
}

; Function Attrs: nounwind sspstrong uwtable
define dso_local ptr @rb_gc_get_objspace() #0 {
  %1 = call ptr @rb_current_vm()
  %2 = getelementptr inbounds nuw %struct.rb_vm_struct, ptr %1, i32 0, i32 32
  %3 = getelementptr inbounds nuw %struct.anon.5, ptr %2, i32 0, i32 0
  %4 = load ptr, ptr %3, align 8, !tbaa !55
  ret ptr %4
}

; Function Attrs: nounwind sspstrong uwtable
define internal i64 @gc_config_get(ptr noundef %0, i64 noundef %1) #0 {
  %3 = alloca ptr, align 8
  %4 = alloca i64, align 8
  %5 = alloca i64, align 8
  %6 = alloca i64, align 8
  store ptr %0, ptr %3, align 8, !tbaa !20
  store i64 %1, ptr %4, align 8, !tbaa !18
  call void @llvm.lifetime.start.p0(i64 8, ptr %5) #6
  %7 = call ptr @rb_gc_get_objspace()
  %8 = call i64 @rb_gc_impl_config_get(ptr noundef %7)
  store i64 %8, ptr %5, align 8, !tbaa !18
  %9 = load i64, ptr %5, align 8, !tbaa !18
  %10 = call i64 @rb_intern_const(ptr noundef @.str.311) #44
  %11 = call i1 @llvm.is.constant.i64(i64 %10)
  br i1 %11, label %12, label %23

12:                                               ; preds = %2
  %13 = call i64 @rb_intern_const(ptr noundef @.str.311) #44
  %14 = and i64 %13, 1
  %15 = icmp ne i64 %14, 0
  br i1 %15, label %19, label %16

16:                                               ; preds = %12
  %17 = call i64 @rb_intern_const(ptr noundef @.str.311) #44
  %18 = icmp ugt i64 %17, 170
  br i1 %18, label %23, label %19

19:                                               ; preds = %16, %12
  %20 = call i64 @rb_intern_const(ptr noundef @.str.311) #44
  %21 = shl i64 %20, 8
  %22 = or i64 %21, 12
  br label %26

23:                                               ; preds = %16, %2
  %24 = call i64 @rb_intern_const(ptr noundef @.str.311) #44
  %25 = call i64 @rb_id2sym(i64 noundef %24)
  br label %26

26:                                               ; preds = %23, %19
  %27 = phi i64 [ %22, %19 ], [ %25, %23 ]
  store i64 %27, ptr %6, align 8, !tbaa !18
  %28 = load i64, ptr %6, align 8, !tbaa !18
  %29 = call ptr @rb_gc_impl_active_gc_name()
  %30 = call i64 @rb_fstring_cstr(ptr noundef %29)
  %31 = call i64 @rb_hash_aset(i64 noundef %9, i64 noundef %28, i64 noundef %30)
  %32 = load i64, ptr %5, align 8, !tbaa !18
  call void @llvm.lifetime.end.p0(i64 8, ptr %5) #6
  ret i64 %32
}