; Function Attrs: nounwind sspstrong uwtable
define internal i64 @gc_config_get(ptr readnone captures(none) %0, i64 %1) #0 {
rb_gc_impl_config_get.exit:
  %2 = load ptr, ptr @ruby_current_vm_ptr, align 8, !tbaa !62
  %3 = getelementptr inbounds nuw i8, ptr %2, i64 1296
  %4 = load ptr, ptr %3, align 8, !tbaa !63
  %5 = tail call i64 @rb_hash_new() #7
  %6 = tail call i64 @rb_intern2(ptr noundef nonnull @.str.312, i64 noundef 22) #7
  %7 = tail call i64 @rb_intern2(ptr noundef nonnull @.str.312, i64 noundef 22) #7
  %8 = tail call i64 @rb_id2sym(i64 noundef %7) #7
  %9 = getelementptr inbounds nuw i8, ptr %4, i64 16
  %10 = load i8, ptr %9, align 8, !tbaa !120, !range !302, !noundef !47
  %11 = trunc nuw i8 %10 to i1
  %12 = select i1 %11, i64 20, i64 0
  %13 = tail call i64 @rb_hash_aset(i64 noundef %5, i64 noundef %8, i64 noundef %12) #7
  %14 = tail call i64 @rb_intern2(ptr noundef nonnull @.str.311, i64 noundef 14) #7
  %15 = tail call i64 @rb_intern2(ptr noundef nonnull @.str.311, i64 noundef 14) #7
  %16 = tail call i64 @rb_id2sym(i64 noundef %15) #7
  %17 = tail call i64 @rb_fstring_cstr(ptr noundef nonnull @.str.139) #7
  %18 = tail call i64 @rb_hash_aset(i64 noundef %5, i64 noundef %16, i64 noundef %17) #7
  ret i64 %5
}